; Function Attrs: mustprogress nofree norecurse nosync nounwind willreturn memory(argmem: readwrite) uwtable
define noundef float @_ZN15b2DistanceJoint12SetMinLengthEf(ptr nocapture noundef nonnull align 8 dereferenceable(260) %this, float noundef %minLength) local_unnamed_addr #10 align 2 {
entry:
  %m_lowerImpulse = getelementptr inbounds i8, ptr %this, i64 176
  store float 0.000000e+00, ptr %m_lowerImpulse, align 8
  %m_maxLength = getelementptr inbounds i8, ptr %this, i64 148
  %0 = load float, ptr %m_maxLength, align 4
  %cmp.i.i = fcmp ogt float %0, %minLength
  %cond.i.i = select i1 %cmp.i.i, float %minLength, float %0
  %cmp.i1.i = fcmp olt float %cond.i.i, 0x3F747AE140000000
  %cond.i2.i = select i1 %cmp.i1.i, float 0x3F747AE140000000, float %cond.i.i
  %m_minLength = getelementptr inbounds i8, ptr %this, i64 144
  store float %cond.i2.i, ptr %m_minLength, align 8
  ret float %cond.i2.i
}